; Function Attrs: nounwind uwtable
define noundef ptr @php_random_engine_common_init(ptr noundef %0, ptr noundef %1, ptr noundef %2) local_unnamed_addr #0 {
  %4 = getelementptr inbounds i8, ptr %0, i64 32
  %5 = load i32, ptr %4, align 8
  %6 = getelementptr inbounds i8, ptr %0, i64 28
  %7 = load i32, ptr %6, align 4
  %8 = lshr i32 %7, 11
  %.lobit = and i32 %8, 1
  %9 = xor i32 %.lobit, 1
  %10 = sub nsw i32 %5, %9
  %11 = sext i32 %10 to i64
  %12 = shl nsw i64 %11, 4
  %13 = add nsw i64 %12, 72
  %14 = tail call noalias ptr @_emalloc(i64 noundef %13) #15
  tail call void @llvm.memset.p0.i64(ptr noundef nonnull align 1 dereferenceable(16) %14, i8 0, i64 16, i1 false)
  %15 = getelementptr inbounds i8, ptr %14, i64 16
  tail call void @zend_object_std_init(ptr noundef nonnull %15, ptr noundef %0) #13
  tail call void @object_properties_init(ptr noundef nonnull %15, ptr noundef %0) #13
  %16 = load i64, ptr %2, align 8
  %.not.i = icmp eq i64 %16, 0
  br i1 %.not.i, label %php_random_status_alloc.exit, label %17

17:                                               ; preds = %3
  %18 = tail call noalias ptr @_ecalloc(i64 noundef 1, i64 noundef %16) #14
  br label %php_random_status_alloc.exit

php_random_status_alloc.exit:                     ; preds = %3, %17
  %19 = phi ptr [ %18, %17 ], [ null, %3 ]
  store ptr %2, ptr %14, align 8
  %.sroa.2.0..sroa_idx = getelementptr inbounds i8, ptr %14, i64 8
  store ptr %19, ptr %.sroa.2.0..sroa_idx, align 8
  %20 = getelementptr inbounds i8, ptr %14, i64 40
  store ptr %1, ptr %20, align 8
  ret ptr %14
}